target datalayout = "e-m:e-p270:32:32-p271:32:32-p272:64:64-i64:64-i128:128-f80:128-n8:16:32:64-S128"
target triple = "x86_64-pc-linux-gnu"

%struct.FT_StreamRec_ = type { ptr, i64, i64, %union.FT_StreamDesc_, %union.FT_StreamDesc_, ptr, ptr, ptr, ptr, ptr }
%union.FT_StreamDesc_ = type { i64 }
%struct.FT_BZip2FileRec_ = type { ptr, ptr, ptr, %struct.bz_stream, [4096 x i8], [4096 x i8], i64, ptr, ptr, i8 }
%struct.bz_stream = type { ptr, i32, i32, i32, ptr, i32, i32, i32, ptr, ptr, ptr, ptr }

; Function Attrs: nounwind uwtable
define internal i32 @ft_bzip2_file_skip_output(ptr noundef %0, i64 noundef %1) #0 {
  %3 = alloca ptr, align 8
  %4 = alloca i64, align 8
  %5 = alloca i32, align 4
  %6 = alloca i64, align 8
  store ptr %0, ptr %3, align 8
  store i64 %1, ptr %4, align 8
  store i32 0, ptr %5, align 4
  br label %7

7:                                                ; preds = %45, %2
  %8 = load ptr, ptr %3, align 8
  %9 = getelementptr inbounds %struct.FT_BZip2FileRec_, ptr %8, i32 0, i32 8
  %10 = load ptr, ptr %9, align 8
  %11 = load ptr, ptr %3, align 8
  %12 = getelementptr inbounds %struct.FT_BZip2FileRec_, ptr %11, i32 0, i32 7
  %13 = load ptr, ptr %12, align 8
  %14 = ptrtoint ptr %10 to i64
  %15 = ptrtoint ptr %13 to i64
  %16 = sub i64 %14, %15
  store i64 %16, ptr %6, align 8
  %17 = load i64, ptr %6, align 8
  %18 = load i64, ptr %4, align 8
  %19 = icmp uge i64 %17, %18
  br i1 %19, label %20, label %22

20:                                               ; preds = %7
  %21 = load i64, ptr %4, align 8
  store i64 %21, ptr %6, align 8
  br label %22

22:                                               ; preds = %20, %7
  %23 = load i64, ptr %6, align 8
  %24 = load ptr, ptr %3, align 8
  %25 = getelementptr inbounds %struct.FT_BZip2FileRec_, ptr %24, i32 0, i32 7
  %26 = load ptr, ptr %25, align 8
  %27 = getelementptr inbounds i8, ptr %26, i64 %23
  store ptr %27, ptr %25, align 8
  %28 = load i64, ptr %6, align 8
  %29 = load ptr, ptr %3, align 8
  %30 = getelementptr inbounds %struct.FT_BZip2FileRec_, ptr %29, i32 0, i32 6
  %31 = load i64, ptr %30, align 8
  %32 = add i64 %31, %28
  store i64 %32, ptr %30, align 8
  %33 = load i64, ptr %6, align 8
  %34 = load i64, ptr %4, align 8
  %35 = sub i64 %34, %33
  store i64 %35, ptr %4, align 8
  %36 = load i64, ptr %4, align 8
  %37 = icmp eq i64 %36, 0
  br i1 %37, label %38, label %39

38:                                               ; preds = %22
  br label %46

39:                                               ; preds = %22
  %40 = load ptr, ptr %3, align 8
  %41 = call i32 @ft_bzip2_file_fill_output(ptr noundef %40)
  store i32 %41, ptr %5, align 4
  %42 = load i32, ptr %5, align 4
  %43 = icmp ne i32 %42, 0
  br i1 %43, label %44, label %45

44:                                               ; preds = %39
  br label %46

45:                                               ; preds = %39
  br label %7

46:                                               ; preds = %44, %38
  %47 = load i32, ptr %5, align 4
  ret i32 %47
}

; Function Attrs: nounwind uwtable
define internal i32 @ft_bzip2_file_reset(ptr noundef %0) #0 {
  %2 = alloca ptr, align 8
  %3 = alloca ptr, align 8
  %4 = alloca i32, align 4
  %5 = alloca ptr, align 8
  store ptr %0, ptr %2, align 8
  %6 = load ptr, ptr %2, align 8
  %7 = getelementptr inbounds %struct.FT_BZip2FileRec_, ptr %6, i32 0, i32 0
  %8 = load ptr, ptr %7, align 8
  store ptr %8, ptr %3, align 8
  %9 = load ptr, ptr %3, align 8
  %10 = call i32 @FT_Stream_Seek(ptr noundef %9, i64 noundef 0)
  store i32 %10, ptr %4, align 4
  %11 = icmp ne i32 %10, 0
  br i1 %11, label %48, label %12

12:                                               ; preds = %1
  %13 = load ptr, ptr %2, align 8
  %14 = getelementptr inbounds %struct.FT_BZip2FileRec_, ptr %13, i32 0, i32 3
  store ptr %14, ptr %5, align 8
  %15 = load ptr, ptr %5, align 8
  %16 = call i32 @BZ2_bzDecompressEnd(ptr noundef %15)
  %17 = load ptr, ptr %5, align 8
  %18 = getelementptr inbounds %struct.bz_stream, ptr %17, i32 0, i32 1
  store i32 0, ptr %18, align 8
  %19 = load ptr, ptr %2, align 8
  %20 = getelementptr inbounds %struct.FT_BZip2FileRec_, ptr %19, i32 0, i32 4
  %21 = getelementptr inbounds [4096 x i8], ptr %20, i64 0, i64 0
  %22 = load ptr, ptr %5, align 8
  %23 = getelementptr inbounds %struct.bz_stream, ptr %22, i32 0, i32 0
  store ptr %21, ptr %23, align 8
  %24 = load ptr, ptr %5, align 8
  %25 = getelementptr inbounds %struct.bz_stream, ptr %24, i32 0, i32 5
  store i32 0, ptr %25, align 8
  %26 = load ptr, ptr %2, align 8
  %27 = getelementptr inbounds %struct.FT_BZip2FileRec_, ptr %26, i32 0, i32 5
  %28 = getelementptr inbounds [4096 x i8], ptr %27, i64 0, i64 0
  %29 = load ptr, ptr %5, align 8
  %30 = getelementptr inbounds %struct.bz_stream, ptr %29, i32 0, i32 4
  store ptr %28, ptr %30, align 8
  %31 = load ptr, ptr %2, align 8
  %32 = getelementptr inbounds %struct.FT_BZip2FileRec_, ptr %31, i32 0, i32 5
  %33 = getelementptr inbounds [4096 x i8], ptr %32, i64 0, i64 0
  %34 = getelementptr inbounds i8, ptr %33, i64 4096
  %35 = load ptr, ptr %2, align 8
  %36 = getelementptr inbounds %struct.FT_BZip2FileRec_, ptr %35, i32 0, i32 8
  store ptr %34, ptr %36, align 8
  %37 = load ptr, ptr %2, align 8
  %38 = getelementptr inbounds %struct.FT_BZip2FileRec_, ptr %37, i32 0, i32 8
  %39 = load ptr, ptr %38, align 8
  %40 = load ptr, ptr %2, align 8
  %41 = getelementptr inbounds %struct.FT_BZip2FileRec_, ptr %40, i32 0, i32 7
  store ptr %39, ptr %41, align 8
  %42 = load ptr, ptr %2, align 8
  %43 = getelementptr inbounds %struct.FT_BZip2FileRec_, ptr %42, i32 0, i32 6
  store i64 0, ptr %43, align 8
  %44 = load ptr, ptr %2, align 8
  %45 = getelementptr inbounds %struct.FT_BZip2FileRec_, ptr %44, i32 0, i32 9
  store i8 0, ptr %45, align 8
  %46 = load ptr, ptr %5, align 8
  %47 = call i32 @BZ2_bzDecompressInit(ptr noundef %46, i32 noundef 0, i32 noundef 0)
  br label %48

48:                                               ; preds = %12, %1
  %49 = load i32, ptr %4, align 4
  ret i32 %49
}

; Function Attrs: nounwind uwtable
define internal i64 @ft_bzip2_file_io(ptr noundef %0, i64 noundef %1, ptr noundef %2, i64 noundef %3) #0 {
  %5 = alloca ptr, align 8
  %6 = alloca i64, align 8
  %7 = alloca ptr, align 8
  %8 = alloca i64, align 8
  %9 = alloca i64, align 8
  %10 = alloca i32, align 4
  %11 = alloca i64, align 8
  store ptr %0, ptr %5, align 8
  store i64 %1, ptr %6, align 8
  store ptr %2, ptr %7, align 8
  store i64 %3, ptr %8, align 8
  store i64 0, ptr %9, align 8
  %12 = load i64, ptr %6, align 8
  %13 = load ptr, ptr %5, align 8
  %14 = getelementptr inbounds %struct.FT_BZip2FileRec_, ptr %13, i32 0, i32 6
  %15 = load i64, ptr %14, align 8
  %16 = icmp ult i64 %12, %15
  br i1 %16, label %23, label %17

17:                                               ; preds = %4
  %18 = load ptr, ptr %5, align 8
  %19 = getelementptr inbounds %struct.FT_BZip2FileRec_, ptr %18, i32 0, i32 9
  %20 = load i8, ptr %19, align 8
  %21 = zext i8 %20 to i32
  %22 = icmp ne i32 %21, 0
  br i1 %22, label %23, label %30

23:                                               ; preds = %17, %4
  %24 = load ptr, ptr %5, align 8
  %25 = call i32 @ft_bzip2_file_reset(ptr noundef %24)
  store i32 %25, ptr %10, align 4
  %26 = load i32, ptr %10, align 4
  %27 = icmp ne i32 %26, 0
  br i1 %27, label %28, label %29

28:                                               ; preds = %23
  br label %104

29:                                               ; preds = %23
  br label %30

30:                                               ; preds = %29, %17
  %31 = load i64, ptr %6, align 8
  %32 = load ptr, ptr %5, align 8
  %33 = getelementptr inbounds %struct.FT_BZip2FileRec_, ptr %32, i32 0, i32 6
  %34 = load i64, ptr %33, align 8
  %35 = icmp ugt i64 %31, %34
  br i1 %35, label %36, label %48

36:                                               ; preds = %30
  %37 = load ptr, ptr %5, align 8
  %38 = load i64, ptr %6, align 8
  %39 = load ptr, ptr %5, align 8
  %40 = getelementptr inbounds %struct.FT_BZip2FileRec_, ptr %39, i32 0, i32 6
  %41 = load i64, ptr %40, align 8
  %42 = sub i64 %38, %41
  %43 = call i32 @ft_bzip2_file_skip_output(ptr noundef %37, i64 noundef %42)
  store i32 %43, ptr %10, align 4
  %44 = load i32, ptr %10, align 4
  %45 = icmp ne i32 %44, 0
  br i1 %45, label %46, label %47

46:                                               ; preds = %36
  br label %104

47:                                               ; preds = %36
  br label %48

48:                                               ; preds = %47, %30
  %49 = load i64, ptr %8, align 8
  %50 = icmp eq i64 %49, 0
  br i1 %50, label %51, label %52

51:                                               ; preds = %48
  br label %104

52:                                               ; preds = %48
  br label %53

53:                                               ; preds = %102, %52
  %54 = load ptr, ptr %5, align 8
  %55 = getelementptr inbounds %struct.FT_BZip2FileRec_, ptr %54, i32 0, i32 8
  %56 = load ptr, ptr %55, align 8
  %57 = load ptr, ptr %5, align 8
  %58 = getelementptr inbounds %struct.FT_BZip2FileRec_, ptr %57, i32 0, i32 7
  %59 = load ptr, ptr %58, align 8
  %60 = ptrtoint ptr %56 to i64
  %61 = ptrtoint ptr %59 to i64
  %62 = sub i64 %60, %61
  store i64 %62, ptr %11, align 8
  %63 = load i64, ptr %11, align 8
  %64 = load i64, ptr %8, align 8
  %65 = icmp uge i64 %63, %64
  br i1 %65, label %66, label %68

66:                                               ; preds = %53
  %67 = load i64, ptr %8, align 8
  store i64 %67, ptr %11, align 8
  br label %68

68:                                               ; preds = %66, %53
  %69 = load ptr, ptr %7, align 8
  %70 = load ptr, ptr %5, align 8
  %71 = getelementptr inbounds %struct.FT_BZip2FileRec_, ptr %70, i32 0, i32 7
  %72 = load ptr, ptr %71, align 8
  %73 = load i64, ptr %11, align 8
  call void @llvm.memcpy.p0.p0.i64(ptr align 1 %69, ptr align 1 %72, i64 %73, i1 false)
  %74 = load i64, ptr %11, align 8
  %75 = load ptr, ptr %7, align 8
  %76 = getelementptr inbounds i8, ptr %75, i64 %74
  store ptr %76, ptr %7, align 8
  %77 = load i64, ptr %11, align 8
  %78 = load i64, ptr %9, align 8
  %79 = add i64 %78, %77
  store i64 %79, ptr %9, align 8
  %80 = load i64, ptr %11, align 8
  %81 = load ptr, ptr %5, align 8
  %82 = getelementptr inbounds %struct.FT_BZip2FileRec_, ptr %81, i32 0, i32 7
  %83 = load ptr, ptr %82, align 8
  %84 = getelementptr inbounds i8, ptr %83, i64 %80
  store ptr %84, ptr %82, align 8
  %85 = load i64, ptr %11, align 8
  %86 = load ptr, ptr %5, align 8
  %87 = getelementptr inbounds %struct.FT_BZip2FileRec_, ptr %86, i32 0, i32 6
  %88 = load i64, ptr %87, align 8
  %89 = add i64 %88, %85
  store i64 %89, ptr %87, align 8
  %90 = load i64, ptr %11, align 8
  %91 = load i64, ptr %8, align 8
  %92 = sub i64 %91, %90
  store i64 %92, ptr %8, align 8
  %93 = load i64, ptr %8, align 8
  %94 = icmp eq i64 %93, 0
  br i1 %94, label %95, label %96

95:                                               ; preds = %68
  br label %103

96:                                               ; preds = %68
  %97 = load ptr, ptr %5, align 8
  %98 = call i32 @ft_bzip2_file_fill_output(ptr noundef %97)
  store i32 %98, ptr %10, align 4
  %99 = load i32, ptr %10, align 4
  %100 = icmp ne i32 %99, 0
  br i1 %100, label %101, label %102

101:                                              ; preds = %96
  br label %103

102:                                              ; preds = %96
  br label %53

103:                                              ; preds = %101, %95
  br label %104

104:                                              ; preds = %103, %51, %46, %28
  %105 = load i64, ptr %9, align 8
  ret i64 %105
}

; Function Attrs: nounwind uwtable
define internal i64 @ft_bzip2_stream_io(ptr noundef %0, i64 noundef %1, ptr noundef %2, i64 noundef %3) #0 {
  %5 = alloca ptr, align 8
  %6 = alloca i64, align 8
  %7 = alloca ptr, align 8
  %8 = alloca i64, align 8
  %9 = alloca ptr, align 8
  store ptr %0, ptr %5, align 8
  store i64 %1, ptr %6, align 8
  store ptr %2, ptr %7, align 8
  store i64 %3, ptr %8, align 8
  %10 = load ptr, ptr %5, align 8
  %11 = getelementptr inbounds %struct.FT_StreamRec_, ptr %10, i32 0, i32 3
  %12 = load ptr, ptr %11, align 8
  store ptr %12, ptr %9, align 8
  %13 = load ptr, ptr %9, align 8
  %14 = load i64, ptr %6, align 8
  %15 = load ptr, ptr %7, align 8
  %16 = load i64, ptr %8, align 8
  %17 = call i64 @ft_bzip2_file_io(ptr noundef %13, i64 noundef %14, ptr noundef %15, i64 noundef %16)
  ret i64 %17
}