; Function Attrs: nounwind uwtable
define internal i64 @ft_bzip2_stream_io(ptr nocapture noundef readonly %0, i64 noundef %1, ptr nocapture noundef writeonly %2, i64 noundef %3) #0 {
  %5 = getelementptr inbounds i8, ptr %0, i64 24
  %6 = load ptr, ptr %5, align 8
  %7 = getelementptr inbounds i8, ptr %6, i64 8296
  %8 = load i64, ptr %7, align 8
  %9 = icmp ugt i64 %8, %1
  br i1 %9, label %13, label %10

10:                                               ; preds = %4
  %11 = getelementptr inbounds i8, ptr %6, i64 8320
  %12 = load i8, ptr %11, align 8
  %.not.i = icmp eq i8 %12, 0
  br i1 %.not.i, label %27, label %13

13:                                               ; preds = %10, %4
  %14 = load ptr, ptr %6, align 8
  %15 = tail call i32 @FT_Stream_Seek(ptr noundef %14, i64 noundef 0) #6
  %.not.i.i = icmp eq i32 %15, 0
  br i1 %.not.i.i, label %ft_bzip2_file_reset.exit.thread.i, label %ft_bzip2_file_io.exit

ft_bzip2_file_reset.exit.thread.i:                ; preds = %13
  %16 = getelementptr inbounds i8, ptr %6, i64 24
  %17 = tail call i32 @BZ2_bzDecompressEnd(ptr noundef nonnull %16) #6
  %18 = getelementptr inbounds i8, ptr %6, i64 32
  store i32 0, ptr %18, align 8
  %19 = getelementptr inbounds i8, ptr %6, i64 104
  store ptr %19, ptr %16, align 8
  %20 = getelementptr inbounds i8, ptr %6, i64 56
  store i32 0, ptr %20, align 8
  %21 = getelementptr inbounds i8, ptr %6, i64 4200
  %22 = getelementptr inbounds i8, ptr %6, i64 48
  store ptr %21, ptr %22, align 8
  %23 = getelementptr inbounds i8, ptr %6, i64 8312
  store ptr %7, ptr %23, align 8
  %24 = getelementptr inbounds i8, ptr %6, i64 8304
  store ptr %7, ptr %24, align 8
  store i64 0, ptr %7, align 8
  %25 = getelementptr inbounds i8, ptr %6, i64 8320
  store i8 0, ptr %25, align 8
  %26 = tail call i32 @BZ2_bzDecompressInit(ptr noundef nonnull %16, i32 noundef 0, i32 noundef 0) #6
  %.pre.i = load i64, ptr %7, align 8
  br label %27

27:                                               ; preds = %ft_bzip2_file_reset.exit.thread.i, %10
  %28 = phi i64 [ %.pre.i, %ft_bzip2_file_reset.exit.thread.i ], [ %8, %10 ]
  %29 = icmp ult i64 %28, %1
  br i1 %29, label %30, label %48

30:                                               ; preds = %27
  %31 = sub i64 %1, %28
  %32 = getelementptr inbounds i8, ptr %6, i64 8312
  %33 = getelementptr inbounds i8, ptr %6, i64 8304
  br label %34

34:                                               ; preds = %45, %30
  %.015.i.i = phi i64 [ %31, %30 ], [ %43, %45 ]
  %35 = load ptr, ptr %32, align 8
  %36 = load ptr, ptr %33, align 8
  %37 = ptrtoint ptr %35 to i64
  %38 = ptrtoint ptr %36 to i64
  %39 = sub i64 %37, %38
  %spec.select.i.i = tail call i64 @llvm.umin.i64(i64 %39, i64 %.015.i.i)
  %40 = getelementptr inbounds i8, ptr %36, i64 %spec.select.i.i
  store ptr %40, ptr %33, align 8
  %41 = load i64, ptr %7, align 8
  %42 = add i64 %spec.select.i.i, %41
  store i64 %42, ptr %7, align 8
  %43 = sub i64 %.015.i.i, %spec.select.i.i
  %44 = icmp eq i64 %43, 0
  br i1 %44, label %ft_bzip2_file_skip_output.exit.i, label %45

45:                                               ; preds = %34
  %46 = tail call fastcc i32 @ft_bzip2_file_fill_output(ptr noundef nonnull %6)
  %.not20.i.i = icmp eq i32 %46, 0
  br i1 %.not20.i.i, label %34, label %ft_bzip2_file_io.exit

ft_bzip2_file_skip_output.exit.i:                 ; preds = %34
  %47 = icmp eq i64 %3, 0
  br i1 %47, label %ft_bzip2_file_io.exit, label %.preheader.i

48:                                               ; preds = %27
  %.old1.i = icmp eq i64 %3, 0
  br i1 %.old1.i, label %ft_bzip2_file_io.exit, label %.preheader.i

.preheader.i:                                     ; preds = %48, %ft_bzip2_file_skip_output.exit.i
  %49 = getelementptr inbounds i8, ptr %6, i64 8312
  %50 = getelementptr inbounds i8, ptr %6, i64 8304
  br label %51

51:                                               ; preds = %64, %.preheader.i
  %.037.i = phi ptr [ %65, %64 ], [ %2, %.preheader.i ]
  %.036.i = phi i64 [ %62, %64 ], [ %3, %.preheader.i ]
  %.035.i = phi i64 [ %57, %64 ], [ 0, %.preheader.i ]
  %52 = load ptr, ptr %49, align 8
  %53 = load ptr, ptr %50, align 8
  %54 = ptrtoint ptr %52 to i64
  %55 = ptrtoint ptr %53 to i64
  %56 = sub i64 %54, %55
  %spec.select.i = tail call i64 @llvm.umin.i64(i64 %56, i64 %.036.i)
  tail call void @llvm.memcpy.p0.p0.i64(ptr align 1 %.037.i, ptr align 1 %53, i64 %spec.select.i, i1 false)
  %57 = add i64 %spec.select.i, %.035.i
  %58 = load ptr, ptr %50, align 8
  %59 = getelementptr inbounds i8, ptr %58, i64 %spec.select.i
  store ptr %59, ptr %50, align 8
  %60 = load i64, ptr %7, align 8
  %61 = add i64 %60, %spec.select.i
  store i64 %61, ptr %7, align 8
  %62 = sub i64 %.036.i, %spec.select.i
  %63 = icmp eq i64 %62, 0
  br i1 %63, label %ft_bzip2_file_io.exit, label %64

64:                                               ; preds = %51
  %65 = getelementptr inbounds i8, ptr %.037.i, i64 %spec.select.i
  %66 = tail call fastcc i32 @ft_bzip2_file_fill_output(ptr noundef nonnull %6)
  %.not46.i = icmp eq i32 %66, 0
  br i1 %.not46.i, label %51, label %ft_bzip2_file_io.exit

ft_bzip2_file_io.exit:                            ; preds = %45, %51, %64, %13, %ft_bzip2_file_skip_output.exit.i, %48
  %.1.i = phi i64 [ 0, %ft_bzip2_file_skip_output.exit.i ], [ 0, %48 ], [ 0, %13 ], [ %57, %64 ], [ %57, %51 ], [ 0, %45 ]
  ret i64 %.1.i
}